target datalayout = "e-m:e-p270:32:32-p271:32:32-p272:64:64-i64:64-i128:128-f80:128-n8:16:32:64-S128"
target triple = "x86_64-pc-linux-gnu"

@.str = private unnamed_addr constant [13 x i8] c"darktable/%s\00", align 1
@darktable_package_version = external constant [0 x i8], align 1
@.str.1 = private unnamed_addr constant [3 x i8] c"..\00", align 1
@.str.2 = private unnamed_addr constant [5 x i8] c"curl\00", align 1
@.str.3 = private unnamed_addr constant [19 x i8] c"curl-ca-bundle.crt\00", align 1

; Function Attrs: nounwind uwtable
define void @dt_curl_init(ptr noundef %0, i32 noundef %1) #0 {
  %3 = alloca ptr, align 8
  %4 = alloca i32, align 4
  %5 = alloca [64 x i8], align 16
  %6 = alloca [4096 x i8], align 16
  %7 = alloca ptr, align 8
  store ptr %0, ptr %3, align 8, !tbaa !6
  store i32 %1, ptr %4, align 4, !tbaa !10
  %8 = load ptr, ptr %3, align 8, !tbaa !6
  call void @curl_easy_reset(ptr noundef %8)
  call void @llvm.lifetime.start.p0(i64 64, ptr %5) #5
  %9 = getelementptr inbounds [64 x i8], ptr %5, i64 0, i64 0
  %10 = call i32 (ptr, i64, ptr, ...) @snprintf(ptr noundef %9, i64 noundef 64, ptr noundef @.str, ptr noundef @darktable_package_version) #5
  %11 = load ptr, ptr %3, align 8, !tbaa !6
  %12 = getelementptr inbounds [64 x i8], ptr %5, i64 0, i64 0
  %13 = call i32 (ptr, i32, ...) @curl_easy_setopt(ptr noundef %11, i32 noundef 10018, ptr noundef %12)
  call void @llvm.lifetime.start.p0(i64 4096, ptr %6) #5
  call void @llvm.memset.p0.i64(ptr align 16 %6, i8 0, i64 4096, i1 false)
  %14 = getelementptr inbounds [4096 x i8], ptr %6, i64 0, i64 0
  call void @dt_loc_get_datadir(ptr noundef %14, i64 noundef 4096)
  call void @llvm.lifetime.start.p0(i64 8, ptr %7) #5
  %15 = getelementptr inbounds [4096 x i8], ptr %6, i64 0, i64 0
  %16 = call noalias ptr (ptr, ...) @g_build_filename(ptr noundef %15, ptr noundef @.str.1, ptr noundef @.str.2, ptr noundef @.str.3, ptr noundef null)
  store ptr %16, ptr %7, align 8, !tbaa !12
  %17 = load ptr, ptr %7, align 8, !tbaa !12
  %18 = call i32 @g_file_test(ptr noundef %17, i32 noundef 16)
  %19 = icmp ne i32 %18, 0
  br i1 %19, label %20, label %24

20:                                               ; preds = %2
  %21 = load ptr, ptr %3, align 8, !tbaa !6
  %22 = load ptr, ptr %7, align 8, !tbaa !12
  %23 = call i32 (ptr, i32, ...) @curl_easy_setopt(ptr noundef %21, i32 noundef 10065, ptr noundef %22)
  br label %24

24:                                               ; preds = %20, %2
  %25 = load ptr, ptr %7, align 8, !tbaa !12
  call void @g_free(ptr noundef %25)
  %26 = load ptr, ptr %3, align 8, !tbaa !6
  %27 = call i32 (ptr, i32, ...) @curl_easy_setopt(ptr noundef %26, i32 noundef 52, i64 noundef 1)
  %28 = load i32, ptr %4, align 4, !tbaa !10
  %29 = icmp ne i32 %28, 0
  br i1 %29, label %30, label %33

30:                                               ; preds = %24
  %31 = load ptr, ptr %3, align 8, !tbaa !6
  %32 = call i32 (ptr, i32, ...) @curl_easy_setopt(ptr noundef %31, i32 noundef 41, i32 noundef 1)
  br label %33

33:                                               ; preds = %30, %24
  call void @llvm.lifetime.end.p0(i64 8, ptr %7) #5
  call void @llvm.lifetime.end.p0(i64 4096, ptr %6) #5
  call void @llvm.lifetime.end.p0(i64 64, ptr %5) #5
  ret void
}

declare void @curl_easy_reset(ptr noundef) #1

; Function Attrs: nocallback nofree nosync nounwind willreturn memory(argmem: readwrite)
declare void @llvm.lifetime.start.p0(i64 immarg, ptr captures(none)) #2

; Function Attrs: nounwind
declare i32 @snprintf(ptr noundef, i64 noundef, ptr noundef, ...) #3

declare i32 @curl_easy_setopt(ptr noundef, i32 noundef, ...) #1

; Function Attrs: nocallback nofree nounwind willreturn memory(argmem: write)
declare void @llvm.memset.p0.i64(ptr writeonly captures(none), i8, i64, i1 immarg) #4

declare void @dt_loc_get_datadir(ptr noundef, i64 noundef) #1

declare noalias ptr @g_build_filename(ptr noundef, ...) #1

declare i32 @g_file_test(ptr noundef, i32 noundef) #1

declare void @g_free(ptr noundef) #1

; Function Attrs: nocallback nofree nosync nounwind willreturn memory(argmem: readwrite)
declare void @llvm.lifetime.end.p0(i64 immarg, ptr captures(none)) #2


!llvm.module.flags = !{!0, !1, !2, !3, !4, !5}

!0 = !{i32 7, !"Dwarf Version", i32 5}
!1 = !{i32 2, !"Debug Info Version", i32 3}
!2 = !{i32 1, !"wchar_size", i32 4}
!3 = !{i32 8, !"PIC Level", i32 2}
!4 = !{i32 7, !"uwtable", i32 2}
!5 = !{i32 7, !"debug-info-assignment-tracking", i1 true}
!6 = !{!7, !7, i64 0}
!7 = !{!"any pointer", !8, i64 0}
!8 = !{!"omnipotent char", !9, i64 0}
!9 = !{!"Simple C/C++ TBAA"}
!10 = !{!11, !11, i64 0}
!11 = !{!"int", !8, i64 0}
!12 = !{!13, !13, i64 0}
!13 = !{!"p1 omnipotent char", !7, i64 0}
