; ModuleID = 'bench/darktable/original/curl_tools.ll'
source_filename = "bench/darktable/original/curl_tools.ll"
target datalayout = "e-m:e-p270:32:32-p271:32:32-p272:64:64-i64:64-i128:128-f80:128-n8:16:32:64-S128"
target triple = "x86_64-pc-linux-gnu"

@.str = private unnamed_addr constant [13 x i8] c"darktable/%s\00", align 1
@darktable_package_version = external constant [0 x i8], align 1
@.str.1 = private unnamed_addr constant [3 x i8] c"..\00", align 1
@.str.2 = private unnamed_addr constant [5 x i8] c"curl\00", align 1
@.str.3 = private unnamed_addr constant [19 x i8] c"curl-ca-bundle.crt\00", align 1

; Function Attrs: nounwind uwtable
define void @dt_curl_init(ptr noundef %0, i32 noundef %1) local_unnamed_addr #0 {
  %3 = alloca [64 x i8], align 16
  %4 = alloca [4096 x i8], align 16
  tail call void @curl_easy_reset(ptr noundef %0) #5
  call void @llvm.lifetime.start.p0(i64 64, ptr nonnull %3) #5
  %5 = call i32 (ptr, i64, ptr, ...) @snprintf(ptr noundef nonnull dereferenceable(1) %3, i64 noundef 64, ptr noundef nonnull @.str, ptr noundef nonnull @darktable_package_version) #5
  %6 = call i32 (ptr, i32, ...) @curl_easy_setopt(ptr noundef %0, i32 noundef 10018, ptr noundef nonnull %3) #5
  call void @llvm.lifetime.start.p0(i64 4096, ptr nonnull %4) #5
  call void @llvm.memset.p0.i64(ptr noundef nonnull align 16 dereferenceable(4096) %4, i8 0, i64 4096, i1 false)
  call void @dt_loc_get_datadir(ptr noundef nonnull %4, i64 noundef 4096) #5
  %7 = call noalias ptr (ptr, ...) @g_build_filename(ptr noundef nonnull %4, ptr noundef nonnull @.str.1, ptr noundef nonnull @.str.2, ptr noundef nonnull @.str.3, ptr noundef null) #5
  %8 = call i32 @g_file_test(ptr noundef %7, i32 noundef 16) #5
  %.not = icmp eq i32 %8, 0
  br i1 %.not, label %11, label %9

9:                                                ; preds = %2
  %10 = call i32 (ptr, i32, ...) @curl_easy_setopt(ptr noundef %0, i32 noundef 10065, ptr noundef %7) #5
  br label %11

11:                                               ; preds = %9, %2
  call void @g_free(ptr noundef %7) #5
  %12 = call i32 (ptr, i32, ...) @curl_easy_setopt(ptr noundef %0, i32 noundef 52, i64 noundef 1) #5
  %.not8 = icmp eq i32 %1, 0
  br i1 %.not8, label %15, label %13

13:                                               ; preds = %11
  %14 = call i32 (ptr, i32, ...) @curl_easy_setopt(ptr noundef %0, i32 noundef 41, i32 noundef 1) #5
  br label %15

15:                                               ; preds = %13, %11
  call void @llvm.lifetime.end.p0(i64 4096, ptr nonnull %4) #5
  call void @llvm.lifetime.end.p0(i64 64, ptr nonnull %3) #5
  ret void
}

declare void @curl_easy_reset(ptr noundef) local_unnamed_addr #1

; Function Attrs: mustprogress nocallback nofree nosync nounwind willreturn memory(argmem: readwrite)
declare void @llvm.lifetime.start.p0(i64 immarg, ptr captures(none)) #2

; Function Attrs: nofree nounwind
declare noundef i32 @snprintf(ptr noalias noundef writeonly captures(none), i64 noundef, ptr noundef readonly captures(none), ...) local_unnamed_addr #3

declare i32 @curl_easy_setopt(ptr noundef, i32 noundef, ...) local_unnamed_addr #1

; Function Attrs: mustprogress nocallback nofree nounwind willreturn memory(argmem: write)
declare void @llvm.memset.p0.i64(ptr writeonly captures(none), i8, i64, i1 immarg) #4

declare void @dt_loc_get_datadir(ptr noundef, i64 noundef) local_unnamed_addr #1

declare noalias ptr @g_build_filename(ptr noundef, ...) local_unnamed_addr #1

declare i32 @g_file_test(ptr noundef, i32 noundef) local_unnamed_addr #1

declare void @g_free(ptr noundef) local_unnamed_addr #1

; Function Attrs: mustprogress nocallback nofree nosync nounwind willreturn memory(argmem: readwrite)
declare void @llvm.lifetime.end.p0(i64 immarg, ptr captures(none)) #2


!llvm.module.flags = !{!0, !1, !2, !3, !4, !5}

!0 = !{i32 7, !"Dwarf Version", i32 5}
!1 = !{i32 2, !"Debug Info Version", i32 3}
!2 = !{i32 1, !"wchar_size", i32 4}
!3 = !{i32 8, !"PIC Level", i32 2}
!4 = !{i32 7, !"uwtable", i32 2}
!5 = !{i32 7, !"debug-info-assignment-tracking", i1 true}
